target datalayout = "e-m:e-p270:32:32-p271:32:32-p272:64:64-i64:64-i128:128-f80:128-n8:16:32:64-S128"
target triple = "x86_64-pc-linux-gnu"

%struct.IDAMemRec = type { double, ptr, ptr, i32, double, double, ptr, i32, ptr, ptr, i32, ptr, ptr, i32, i32, double, double, ptr, i32, i32, i32, ptr, ptr, i32, ptr, ptr, ptr, i32, double, i32, i32, double, ptr, ptr, i32, ptr, ptr, i32, i32, i32, double, ptr, ptr, [6 x ptr], [6 x double], [6 x double], [6 x double], [6 x double], [6 x double], ptr, ptr, ptr, ptr, ptr, ptr, ptr, ptr, ptr, ptr, ptr, ptr, ptr, ptr, ptr, [6 x ptr], ptr, ptr, ptr, ptr, [6 x ptr], ptr, ptr, ptr, ptr, ptr, ptr, ptr, ptr, ptr, ptr, ptr, ptr, ptr, ptr, [6 x ptr], ptr, ptr, ptr, ptr, ptr, double, ptr, ptr, i32, i32, i32, i32, i32, i32, i32, double, double, double, i32, double, i32, i32, i32, i32, double, double, double, double, double, double, double, double, double, double, double, double, double, double, i32, i32, i32, i32, i32, i64, double, i32, i64, i64, i64, i64, i64, i64, i64, i64, i64, i64, i64, i64, i64, i64, i64, i64, i64, i64, i64, i64, i64, i64, i64, i64, ptr, ptr, ptr, i32, i32, i32, i32, i32, i32, i32, i32, i32, i32, i32, i32, i32, ptr, ptr, ptr, ptr, ptr, ptr, i32, i32, i32, i32, i32, i32, double, double, double, ptr, i32, ptr, ptr, double, double, double, ptr, ptr, ptr, double, double, i32, i32, i64, ptr, i32, i32, ptr, i32 }
%struct.IDAadjMemRec = type { double, double, i32, i32, double, ptr, i32, ptr, i32, ptr, ptr, i32, i64, ptr, i64, i32, ptr, ptr, ptr, ptr, i32, i32, i32, i32, i32, [6 x ptr], [6 x ptr], [6 x double], ptr, ptr, ptr, ptr, i64 }
%struct.IDABMemRec = type { i32, double, ptr, i32, i32, ptr, ptr, ptr, ptr, ptr, ptr, ptr, ptr, ptr, double, ptr, ptr, ptr }
%struct.IDADlsMemRecB = type { i32, ptr, ptr, ptr, ptr }

@.str = private unnamed_addr constant [10 x i8] c"IDASDENSE\00", align 1
@.str.4 = private unnamed_addr constant [25 x i8] c"A memory request failed.\00", align 1
@.str.5 = private unnamed_addr constant [10 x i8] c"IDADenseB\00", align 1
@.str.6 = private unnamed_addr constant [27 x i8] c"idaadj_mem = NULL illegal.\00", align 1
@.str.7 = private unnamed_addr constant [51 x i8] c"Illegal attempt to call before calling IDAAdjInit.\00", align 1
@.str.8 = private unnamed_addr constant [25 x i8] c"Illegal value for which.\00", align 1

; Function Attrs: nounwind uwtable
define i32 @IDADenseB(ptr noundef %0, i32 noundef %1, i64 noundef %2) #0 {
  %4 = alloca i32, align 4
  %5 = alloca ptr, align 8
  %6 = alloca i32, align 4
  %7 = alloca i64, align 8
  %8 = alloca ptr, align 8
  %9 = alloca ptr, align 8
  %10 = alloca ptr, align 8
  %11 = alloca ptr, align 8
  %12 = alloca ptr, align 8
  %13 = alloca i32, align 4
  %14 = alloca i32, align 4
  store ptr %0, ptr %5, align 8, !tbaa !3
  store i32 %1, ptr %6, align 4, !tbaa !28
  store i64 %2, ptr %7, align 8, !tbaa !7
  call void @llvm.lifetime.start.p0(i64 8, ptr %8) #5
  call void @llvm.lifetime.start.p0(i64 8, ptr %9) #5
  call void @llvm.lifetime.start.p0(i64 8, ptr %10) #5
  call void @llvm.lifetime.start.p0(i64 8, ptr %11) #5
  call void @llvm.lifetime.start.p0(i64 8, ptr %12) #5
  call void @llvm.lifetime.start.p0(i64 4, ptr %13) #5
  %15 = load ptr, ptr %5, align 8, !tbaa !3
  %16 = icmp eq ptr %15, null
  br i1 %16, label %17, label %18

17:                                               ; preds = %3
  call void (ptr, i32, ptr, ptr, ptr, ...) @IDAProcessError(ptr noundef null, i32 noundef -1, ptr noundef @.str, ptr noundef @.str.5, ptr noundef @.str.6)
  store i32 -1, ptr %4, align 4
  store i32 1, ptr %14, align 4
  br label %85

18:                                               ; preds = %3
  %19 = load ptr, ptr %5, align 8, !tbaa !3
  store ptr %19, ptr %8, align 8, !tbaa !9
  %20 = load ptr, ptr %8, align 8, !tbaa !9
  %21 = getelementptr inbounds nuw %struct.IDAMemRec, ptr %20, i32 0, i32 205
  %22 = load i32, ptr %21, align 8, !tbaa !56
  %23 = icmp eq i32 %22, 0
  br i1 %23, label %24, label %26

24:                                               ; preds = %18
  %25 = load ptr, ptr %8, align 8, !tbaa !9
  call void (ptr, i32, ptr, ptr, ptr, ...) @IDAProcessError(ptr noundef %25, i32 noundef -101, ptr noundef @.str, ptr noundef @.str.5, ptr noundef @.str.7)
  store i32 -101, ptr %4, align 4
  store i32 1, ptr %14, align 4
  br label %85

26:                                               ; preds = %18
  %27 = load ptr, ptr %8, align 8, !tbaa !9
  %28 = getelementptr inbounds nuw %struct.IDAMemRec, ptr %27, i32 0, i32 204
  %29 = load ptr, ptr %28, align 8, !tbaa !57
  store ptr %29, ptr %9, align 8, !tbaa !58
  %30 = load i32, ptr %6, align 4, !tbaa !28
  %31 = load ptr, ptr %9, align 8, !tbaa !58
  %32 = getelementptr inbounds nuw %struct.IDAadjMemRec, ptr %31, i32 0, i32 6
  %33 = load i32, ptr %32, align 8, !tbaa !59
  %34 = icmp sge i32 %30, %33
  br i1 %34, label %35, label %37

35:                                               ; preds = %26
  %36 = load ptr, ptr %8, align 8, !tbaa !9
  call void (ptr, i32, ptr, ptr, ptr, ...) @IDAProcessError(ptr noundef %36, i32 noundef -3, ptr noundef @.str, ptr noundef @.str.5, ptr noundef @.str.8)
  store i32 -3, ptr %4, align 4
  store i32 1, ptr %14, align 4
  br label %85

37:                                               ; preds = %26
  %38 = load ptr, ptr %9, align 8, !tbaa !58
  %39 = getelementptr inbounds nuw %struct.IDAadjMemRec, ptr %38, i32 0, i32 5
  %40 = load ptr, ptr %39, align 8, !tbaa !64
  store ptr %40, ptr %10, align 8, !tbaa !65
  br label %41

41:                                               ; preds = %51, %37
  %42 = load ptr, ptr %10, align 8, !tbaa !65
  %43 = icmp ne ptr %42, null
  br i1 %43, label %44, label %55

44:                                               ; preds = %41
  %45 = load i32, ptr %6, align 4, !tbaa !28
  %46 = load ptr, ptr %10, align 8, !tbaa !65
  %47 = getelementptr inbounds nuw %struct.IDABMemRec, ptr %46, i32 0, i32 0
  %48 = load i32, ptr %47, align 8, !tbaa !66
  %49 = icmp eq i32 %45, %48
  br i1 %49, label %50, label %51

50:                                               ; preds = %44
  br label %55

51:                                               ; preds = %44
  %52 = load ptr, ptr %10, align 8, !tbaa !65
  %53 = getelementptr inbounds nuw %struct.IDABMemRec, ptr %52, i32 0, i32 17
  %54 = load ptr, ptr %53, align 8, !tbaa !68
  store ptr %54, ptr %10, align 8, !tbaa !65
  br label %41, !llvm.loop !69

55:                                               ; preds = %50, %41
  %56 = call noalias ptr @malloc(i64 noundef 40) #6
  store ptr %56, ptr %11, align 8, !tbaa !71
  %57 = load ptr, ptr %11, align 8, !tbaa !71
  %58 = icmp eq ptr %57, null
  br i1 %58, label %59, label %63

59:                                               ; preds = %55
  %60 = load ptr, ptr %10, align 8, !tbaa !65
  %61 = getelementptr inbounds nuw %struct.IDABMemRec, ptr %60, i32 0, i32 2
  %62 = load ptr, ptr %61, align 8, !tbaa !73
  call void (ptr, i32, ptr, ptr, ptr, ...) @IDAProcessError(ptr noundef %62, i32 noundef -4, ptr noundef @.str, ptr noundef @.str.5, ptr noundef @.str.4)
  store i32 -4, ptr %4, align 4
  store i32 1, ptr %14, align 4
  br label %85

63:                                               ; preds = %55
  %64 = load ptr, ptr %11, align 8, !tbaa !71
  %65 = getelementptr inbounds nuw %struct.IDADlsMemRecB, ptr %64, i32 0, i32 0
  store i32 1, ptr %65, align 8, !tbaa !74
  %66 = load ptr, ptr %11, align 8, !tbaa !71
  %67 = getelementptr inbounds nuw %struct.IDADlsMemRecB, ptr %66, i32 0, i32 3
  store ptr null, ptr %67, align 8, !tbaa !76
  %68 = load ptr, ptr %11, align 8, !tbaa !71
  %69 = load ptr, ptr %10, align 8, !tbaa !65
  %70 = getelementptr inbounds nuw %struct.IDABMemRec, ptr %69, i32 0, i32 10
  store ptr %68, ptr %70, align 8, !tbaa !77
  %71 = load ptr, ptr %10, align 8, !tbaa !65
  %72 = getelementptr inbounds nuw %struct.IDABMemRec, ptr %71, i32 0, i32 11
  store ptr @IDADenseFreeB, ptr %72, align 8, !tbaa !78
  %73 = load ptr, ptr %10, align 8, !tbaa !65
  %74 = getelementptr inbounds nuw %struct.IDABMemRec, ptr %73, i32 0, i32 2
  %75 = load ptr, ptr %74, align 8, !tbaa !73
  store ptr %75, ptr %12, align 8, !tbaa !3
  %76 = load ptr, ptr %12, align 8, !tbaa !3
  %77 = load i64, ptr %7, align 8, !tbaa !7
  %78 = call i32 @IDADense(ptr noundef %76, i64 noundef %77)
  store i32 %78, ptr %13, align 4, !tbaa !28
  %79 = load i32, ptr %13, align 4, !tbaa !28
  %80 = icmp ne i32 %79, 0
  br i1 %80, label %81, label %83

81:                                               ; preds = %63
  %82 = load ptr, ptr %11, align 8, !tbaa !71
  call void @free(ptr noundef %82) #5
  store ptr null, ptr %11, align 8, !tbaa !71
  br label %83

83:                                               ; preds = %81, %63
  %84 = load i32, ptr %13, align 4, !tbaa !28
  store i32 %84, ptr %4, align 4
  store i32 1, ptr %14, align 4
  br label %85

85:                                               ; preds = %83, %59, %35, %24, %17
  call void @llvm.lifetime.end.p0(i64 4, ptr %13) #5
  call void @llvm.lifetime.end.p0(i64 8, ptr %12) #5
  call void @llvm.lifetime.end.p0(i64 8, ptr %11) #5
  call void @llvm.lifetime.end.p0(i64 8, ptr %10) #5
  call void @llvm.lifetime.end.p0(i64 8, ptr %9) #5
  call void @llvm.lifetime.end.p0(i64 8, ptr %8) #5
  %86 = load i32, ptr %4, align 4
  ret i32 %86
}