; Function Attrs: nounwind uwtable
define range(i32 -101, 1) i32 @IDADenseB(ptr noundef %0, i32 noundef %1, i64 noundef %2) local_unnamed_addr #0 {
  %4 = icmp eq ptr %0, null
  br i1 %4, label %5, label %6

5:                                                ; preds = %3
  tail call void (ptr, i32, ptr, ptr, ptr, ...) @IDAProcessError(ptr noundef null, i32 noundef -1, ptr noundef nonnull @.str, ptr noundef nonnull @.str.5, ptr noundef nonnull @.str.6) #7
  br label %36

6:                                                ; preds = %3
  %7 = getelementptr inbounds nuw i8, ptr %0, i64 1824
  %8 = load i32, ptr %7, align 8, !tbaa !46
  %9 = icmp eq i32 %8, 0
  br i1 %9, label %10, label %11

10:                                               ; preds = %6
  tail call void (ptr, i32, ptr, ptr, ptr, ...) @IDAProcessError(ptr noundef nonnull %0, i32 noundef -101, ptr noundef nonnull @.str, ptr noundef nonnull @.str.5, ptr noundef nonnull @.str.7) #7
  br label %36

11:                                               ; preds = %6
  %12 = getelementptr inbounds nuw i8, ptr %0, i64 1816
  %13 = load ptr, ptr %12, align 8, !tbaa !47
  %14 = getelementptr inbounds nuw i8, ptr %13, i64 40
  %15 = load i32, ptr %14, align 8, !tbaa !48
  %.not = icmp slt i32 %1, %15
  br i1 %.not, label %17, label %16

16:                                               ; preds = %11
  tail call void (ptr, i32, ptr, ptr, ptr, ...) @IDAProcessError(ptr noundef nonnull %0, i32 noundef -3, ptr noundef nonnull @.str, ptr noundef nonnull @.str.5, ptr noundef nonnull @.str.8) #7
  br label %36

17:                                               ; preds = %11
  %18 = getelementptr inbounds nuw i8, ptr %13, i64 32
  %.02632 = load ptr, ptr %18, align 8, !tbaa !53
  %.not3033 = icmp eq ptr %.02632, null
  br i1 %.not3033, label %._crit_edge, label %.lr.ph

.lr.ph:                                           ; preds = %17, %21
  %.02634 = phi ptr [ %.026, %21 ], [ %.02632, %17 ]
  %19 = load i32, ptr %.02634, align 8, !tbaa !54
  %20 = icmp eq i32 %1, %19
  br i1 %20, label %._crit_edge, label %21

21:                                               ; preds = %.lr.ph
  %22 = getelementptr inbounds nuw i8, ptr %.02634, i64 128
  %.026 = load ptr, ptr %22, align 8, !tbaa !53
  %.not30 = icmp eq ptr %.026, null
  br i1 %.not30, label %._crit_edge, label %.lr.ph, !llvm.loop !57

._crit_edge:                                      ; preds = %21, %.lr.ph, %17
  %.026.lcssa = phi ptr [ null, %17 ], [ %.02634, %.lr.ph ], [ null, %21 ]
  %23 = tail call noalias dereferenceable_or_null(40) ptr @malloc(i64 noundef 40) #8
  %24 = icmp eq ptr %23, null
  br i1 %24, label %25, label %28

25:                                               ; preds = %._crit_edge
  %26 = getelementptr inbounds nuw i8, ptr %.026.lcssa, i64 16
  %27 = load ptr, ptr %26, align 8, !tbaa !59
  tail call void (ptr, i32, ptr, ptr, ptr, ...) @IDAProcessError(ptr noundef %27, i32 noundef -4, ptr noundef nonnull @.str, ptr noundef nonnull @.str.5, ptr noundef nonnull @.str.4) #7
  br label %36

28:                                               ; preds = %._crit_edge
  store i32 1, ptr %23, align 8, !tbaa !60
  %29 = getelementptr inbounds nuw i8, ptr %23, i64 24
  store ptr null, ptr %29, align 8, !tbaa !62
  %30 = getelementptr inbounds nuw i8, ptr %.026.lcssa, i64 72
  store ptr %23, ptr %30, align 8, !tbaa !63
  %31 = getelementptr inbounds nuw i8, ptr %.026.lcssa, i64 80
  store ptr @IDADenseFreeB, ptr %31, align 8, !tbaa !64
  %32 = getelementptr inbounds nuw i8, ptr %.026.lcssa, i64 16
  %33 = load ptr, ptr %32, align 8, !tbaa !59
  %34 = tail call i32 @IDADense(ptr noundef %33, i64 noundef %2)
  %.not31 = icmp eq i32 %34, 0
  br i1 %.not31, label %36, label %35

35:                                               ; preds = %28
  tail call void @free(ptr noundef nonnull %23) #7
  br label %36

36:                                               ; preds = %28, %35, %25, %16, %10, %5
  %.0 = phi i32 [ -1, %5 ], [ -101, %10 ], [ -3, %16 ], [ -4, %25 ], [ %34, %35 ], [ 0, %28 ]
  ret i32 %.0
}